target datalayout = "e-m:e-p270:32:32-p271:32:32-p272:64:64-i64:64-i128:128-f80:128-n8:16:32:64-S128"
target triple = "x86_64-unknown-linux-gnu"

@.str.8 = private unnamed_addr constant [1 x i8] zeroinitializer, align 1
@_ZN4absl7debian214ascii_internal13kPropertyBitsE = external constant [256 x i8], align 16

; Function Attrs: mustprogress nounwind uwtable
define linkonce_odr noundef zeroext i1 @_ZN4absl7debian213ascii_isspaceEh(i8 noundef zeroext %c) #0 comdat {
entry:
  %c.addr = alloca i8, align 1
  store i8 %c, ptr %c.addr, align 1
  %0 = load i8, ptr %c.addr, align 1
  %idxprom = zext i8 %0 to i64
  %arrayidx = getelementptr inbounds [256 x i8], ptr @_ZN4absl7debian214ascii_internal13kPropertyBitsE, i64 0, i64 %idxprom
  %1 = load i8, ptr %arrayidx, align 1
  %conv = zext i8 %1 to i32
  %and = and i32 %conv, 8
  %cmp = icmp ne i32 %and, 0
  ret i1 %cmp
}

; Function Attrs: mustprogress uwtable
define internal noundef ptr @_ZN3re212re2_internalL15TerminateNumberEPcmPKcPmb(ptr noundef %buf, i64 noundef %nbuf, ptr noundef %str, ptr noundef %np, i1 noundef zeroext %accept_spaces) #1 {
entry:
  %retval = alloca ptr, align 8
  %buf.addr = alloca ptr, align 8
  %nbuf.addr = alloca i64, align 8
  %str.addr = alloca ptr, align 8
  %np.addr = alloca ptr, align 8
  %accept_spaces.addr = alloca i8, align 1
  %n = alloca i64, align 8
  %neg = alloca i8, align 1
  store ptr %buf, ptr %buf.addr, align 8
  store i64 %nbuf, ptr %nbuf.addr, align 8
  store ptr %str, ptr %str.addr, align 8
  store ptr %np, ptr %np.addr, align 8
  %frombool = zext i1 %accept_spaces to i8
  store i8 %frombool, ptr %accept_spaces.addr, align 1
  %0 = load ptr, ptr %np.addr, align 8
  %1 = load i64, ptr %0, align 8
  store i64 %1, ptr %n, align 8
  %2 = load i64, ptr %n, align 8
  %cmp = icmp eq i64 %2, 0
  br i1 %cmp, label %if.then, label %if.end

if.then:                                          ; preds = %entry
  store ptr @.str.8, ptr %retval, align 8
  br label %return

if.end:                                           ; preds = %entry
  %3 = load i64, ptr %n, align 8
  %cmp1 = icmp ugt i64 %3, 0
  br i1 %cmp1, label %land.lhs.true, label %if.end7

land.lhs.true:                                    ; preds = %if.end
  %4 = load ptr, ptr %str.addr, align 8
  %5 = load i8, ptr %4, align 1
  %call = call noundef zeroext i1 @_ZN4absl7debian213ascii_isspaceEh(i8 noundef zeroext %5)
  br i1 %call, label %if.then2, label %if.end7

if.then2:                                         ; preds = %land.lhs.true
  %6 = load i8, ptr %accept_spaces.addr, align 1
  %tobool = trunc i8 %6 to i1
  br i1 %tobool, label %if.end4, label %if.then3

if.then3:                                         ; preds = %if.then2
  store ptr @.str.8, ptr %retval, align 8
  br label %return

if.end4:                                          ; preds = %if.then2
  br label %while.cond

while.cond:                                       ; preds = %while.body, %if.end4
  %7 = load i64, ptr %n, align 8
  %cmp5 = icmp ugt i64 %7, 0
  br i1 %cmp5, label %land.rhs, label %land.end

land.rhs:                                         ; preds = %while.cond
  %8 = load ptr, ptr %str.addr, align 8
  %9 = load i8, ptr %8, align 1
  %call6 = call noundef zeroext i1 @_ZN4absl7debian213ascii_isspaceEh(i8 noundef zeroext %9)
  br label %land.end

land.end:                                         ; preds = %land.rhs, %while.cond
  %10 = phi i1 [ false, %while.cond ], [ %call6, %land.rhs ]
  br i1 %10, label %while.body, label %while.end

while.body:                                       ; preds = %land.end
  %11 = load i64, ptr %n, align 8
  %dec = add i64 %11, -1
  store i64 %dec, ptr %n, align 8
  %12 = load ptr, ptr %str.addr, align 8
  %incdec.ptr = getelementptr inbounds i8, ptr %12, i32 1
  store ptr %incdec.ptr, ptr %str.addr, align 8
  br label %while.cond, !llvm.loop !16

while.end:                                        ; preds = %land.end
  br label %if.end7

if.end7:                                          ; preds = %while.end, %land.lhs.true, %if.end
  store i8 0, ptr %neg, align 1
  %13 = load i64, ptr %n, align 8
  %cmp8 = icmp uge i64 %13, 1
  br i1 %cmp8, label %land.lhs.true9, label %if.end14

land.lhs.true9:                                   ; preds = %if.end7
  %14 = load ptr, ptr %str.addr, align 8
  %arrayidx = getelementptr inbounds i8, ptr %14, i64 0
  %15 = load i8, ptr %arrayidx, align 1
  %conv = sext i8 %15 to i32
  %cmp10 = icmp eq i32 %conv, 45
  br i1 %cmp10, label %if.then11, label %if.end14

if.then11:                                        ; preds = %land.lhs.true9
  store i8 1, ptr %neg, align 1
  %16 = load i64, ptr %n, align 8
  %dec12 = add i64 %16, -1
  store i64 %dec12, ptr %n, align 8
  %17 = load ptr, ptr %str.addr, align 8
  %incdec.ptr13 = getelementptr inbounds i8, ptr %17, i32 1
  store ptr %incdec.ptr13, ptr %str.addr, align 8
  br label %if.end14

if.end14:                                         ; preds = %if.then11, %land.lhs.true9, %if.end7
  %18 = load i64, ptr %n, align 8
  %cmp15 = icmp uge i64 %18, 3
  br i1 %cmp15, label %land.lhs.true16, label %if.end36

land.lhs.true16:                                  ; preds = %if.end14
  %19 = load ptr, ptr %str.addr, align 8
  %arrayidx17 = getelementptr inbounds i8, ptr %19, i64 0
  %20 = load i8, ptr %arrayidx17, align 1
  %conv18 = sext i8 %20 to i32
  %cmp19 = icmp eq i32 %conv18, 48
  br i1 %cmp19, label %land.lhs.true20, label %if.end36

land.lhs.true20:                                  ; preds = %land.lhs.true16
  %21 = load ptr, ptr %str.addr, align 8
  %arrayidx21 = getelementptr inbounds i8, ptr %21, i64 1
  %22 = load i8, ptr %arrayidx21, align 1
  %conv22 = sext i8 %22 to i32
  %cmp23 = icmp eq i32 %conv22, 48
  br i1 %cmp23, label %if.then24, label %if.end36

if.then24:                                        ; preds = %land.lhs.true20
  br label %while.cond25

while.cond25:                                     ; preds = %while.body32, %if.then24
  %23 = load i64, ptr %n, align 8
  %cmp26 = icmp uge i64 %23, 3
  br i1 %cmp26, label %land.rhs27, label %land.end31

land.rhs27:                                       ; preds = %while.cond25
  %24 = load ptr, ptr %str.addr, align 8
  %arrayidx28 = getelementptr inbounds i8, ptr %24, i64 2
  %25 = load i8, ptr %arrayidx28, align 1
  %conv29 = sext i8 %25 to i32
  %cmp30 = icmp eq i32 %conv29, 48
  br label %land.end31

land.end31:                                       ; preds = %land.rhs27, %while.cond25
  %26 = phi i1 [ false, %while.cond25 ], [ %cmp30, %land.rhs27 ]
  br i1 %26, label %while.body32, label %while.end35

while.body32:                                     ; preds = %land.end31
  %27 = load i64, ptr %n, align 8
  %dec33 = add i64 %27, -1
  store i64 %dec33, ptr %n, align 8
  %28 = load ptr, ptr %str.addr, align 8
  %incdec.ptr34 = getelementptr inbounds i8, ptr %28, i32 1
  store ptr %incdec.ptr34, ptr %str.addr, align 8
  br label %while.cond25, !llvm.loop !17

while.end35:                                      ; preds = %land.end31
  br label %if.end36

if.end36:                                         ; preds = %while.end35, %land.lhs.true20, %land.lhs.true16, %if.end14
  %29 = load i8, ptr %neg, align 1
  %tobool37 = trunc i8 %29 to i1
  br i1 %tobool37, label %if.then38, label %if.end40

if.then38:                                        ; preds = %if.end36
  %30 = load i64, ptr %n, align 8
  %inc = add i64 %30, 1
  store i64 %inc, ptr %n, align 8
  %31 = load ptr, ptr %str.addr, align 8
  %incdec.ptr39 = getelementptr inbounds i8, ptr %31, i32 -1
  store ptr %incdec.ptr39, ptr %str.addr, align 8
  br label %if.end40

if.end40:                                         ; preds = %if.then38, %if.end36
  %32 = load i64, ptr %n, align 8
  %33 = load i64, ptr %nbuf.addr, align 8
  %sub = sub i64 %33, 1
  %cmp41 = icmp ugt i64 %32, %sub
  br i1 %cmp41, label %if.then42, label %if.end43

if.then42:                                        ; preds = %if.end40
  store ptr @.str.8, ptr %retval, align 8
  br label %return

if.end43:                                         ; preds = %if.end40
  %34 = load ptr, ptr %buf.addr, align 8
  %35 = load ptr, ptr %str.addr, align 8
  %36 = load i64, ptr %n, align 8
  call void @llvm.memmove.p0.p0.i64(ptr align 1 %34, ptr align 1 %35, i64 %36, i1 false)
  %37 = load i8, ptr %neg, align 1
  %tobool44 = trunc i8 %37 to i1
  br i1 %tobool44, label %if.then45, label %if.end47

if.then45:                                        ; preds = %if.end43
  %38 = load ptr, ptr %buf.addr, align 8
  %arrayidx46 = getelementptr inbounds i8, ptr %38, i64 0
  store i8 45, ptr %arrayidx46, align 1
  br label %if.end47

if.end47:                                         ; preds = %if.then45, %if.end43
  %39 = load ptr, ptr %buf.addr, align 8
  %40 = load i64, ptr %n, align 8
  %arrayidx48 = getelementptr inbounds i8, ptr %39, i64 %40
  store i8 0, ptr %arrayidx48, align 1
  %41 = load i64, ptr %n, align 8
  %42 = load ptr, ptr %np.addr, align 8
  store i64 %41, ptr %42, align 8
  %43 = load ptr, ptr %buf.addr, align 8
  store ptr %43, ptr %retval, align 8
  br label %return

return:                                           ; preds = %if.end47, %if.then42, %if.then3, %if.then
  %44 = load ptr, ptr %retval, align 8
  ret ptr %44
}

; Function Attrs: mustprogress uwtable
define noundef zeroext i1 @_ZN3re212re2_internal5ParseIlEEbPKcmPT_i(ptr noundef %str, i64 noundef %n, ptr noundef %dest, i32 noundef %radix) #1 {
entry:
  %retval = alloca i1, align 1
  %str.addr = alloca ptr, align 8
  %n.addr = alloca i64, align 8
  %dest.addr = alloca ptr, align 8
  %radix.addr = alloca i32, align 4
  %buf = alloca [33 x i8], align 16
  %end = alloca ptr, align 8
  %r = alloca i64, align 8
  store ptr %str, ptr %str.addr, align 8
  store i64 %n, ptr %n.addr, align 8
  store ptr %dest, ptr %dest.addr, align 8
  store i32 %radix, ptr %radix.addr, align 4
  %0 = load i64, ptr %n.addr, align 8
  %cmp = icmp eq i64 %0, 0
  br i1 %cmp, label %if.then, label %if.end

if.then:                                          ; preds = %entry
  store i1 false, ptr %retval, align 1
  br label %return

if.end:                                           ; preds = %entry
  %arraydecay = getelementptr inbounds [33 x i8], ptr %buf, i64 0, i64 0
  %1 = load ptr, ptr %str.addr, align 8
  %call = call noundef ptr @_ZN3re212re2_internalL15TerminateNumberEPcmPKcPmb(ptr noundef %arraydecay, i64 noundef 33, ptr noundef %1, ptr noundef %n.addr, i1 noundef zeroext false)
  store ptr %call, ptr %str.addr, align 8
  %call1 = call ptr @__errno_location() #22
  store i32 0, ptr %call1, align 4
  %2 = load ptr, ptr %str.addr, align 8
  %3 = load i32, ptr %radix.addr, align 4
  %call2 = call i64 @strtol(ptr noundef %2, ptr noundef %end, i32 noundef %3) #16
  store i64 %call2, ptr %r, align 8
  %4 = load ptr, ptr %end, align 8
  %5 = load ptr, ptr %str.addr, align 8
  %6 = load i64, ptr %n.addr, align 8
  %add.ptr = getelementptr inbounds i8, ptr %5, i64 %6
  %cmp3 = icmp ne ptr %4, %add.ptr
  br i1 %cmp3, label %if.then4, label %if.end5

if.then4:                                         ; preds = %if.end
  store i1 false, ptr %retval, align 1
  br label %return

if.end5:                                          ; preds = %if.end
  %call6 = call ptr @__errno_location() #22
  %7 = load i32, ptr %call6, align 4
  %tobool = icmp ne i32 %7, 0
  br i1 %tobool, label %if.then7, label %if.end8

if.then7:                                         ; preds = %if.end5
  store i1 false, ptr %retval, align 1
  br label %return

if.end8:                                          ; preds = %if.end5
  %8 = load ptr, ptr %dest.addr, align 8
  %cmp9 = icmp eq ptr %8, null
  br i1 %cmp9, label %if.then10, label %if.end11

if.then10:                                        ; preds = %if.end8
  store i1 true, ptr %retval, align 1
  br label %return

if.end11:                                         ; preds = %if.end8
  %9 = load i64, ptr %r, align 8
  %10 = load ptr, ptr %dest.addr, align 8
  store i64 %9, ptr %10, align 8
  store i1 true, ptr %retval, align 1
  br label %return

return:                                           ; preds = %if.end11, %if.then10, %if.then7, %if.then4, %if.then
  %11 = load i1, ptr %retval, align 1
  ret i1 %11
}